#include <math.h>
#include <stdio.h>
#include <stdlib.h>
#include <string.h>

int main(){
	char a[501],b[501];
	int i,x,y,z,c;
	double n,p;
	scanf("%lf",&n);
	scanf("%s",&a);
	scanf("%s",&b);
	x=strlen(a);
	y=strlen(b);
	z=0;
	c=0;
	if(x!=y){
		printf("error");
	}else{
		for(i=0;i<x;i++){
			if((a[i]=='A'||a[i]=='T'||a[i]=='G'||a[i]=='C')&&(b[i]=='A'||b[i]=='T'||b[i]=='G'||b[i]=='C')){
				c++;
				if(a[i]==b[i]){
				z++;
				}
			}
		}
		p=1.000*z/x;
		if(c==x&&p>n){
			printf("yes");
		}else if(c==x&&p<=n){
			printf("no");
		}else if(c!=x){
			printf("error");
		}
	}
	return 0;
}
	